target datalayout = "e-m:e-p270:32:32-p271:32:32-p272:64:64-i64:64-i128:128-f80:128-n8:16:32:64-S128"
target triple = "x86_64-pc-linux-gnu"

%struct.DdManager = type { %struct.DdNode, ptr, ptr, ptr, ptr, ptr, ptr, ptr, i32, i32, double, double, double, i32, i32, i32, i32, i32, i32, ptr, ptr, %struct.DdSubtable, i32, i32, i32, i32, i32, i32, i32, double, i32, i32, i32, ptr, i64, double, i32, ptr, ptr, ptr, ptr, ptr, ptr, ptr, i32, ptr, ptr, ptr, ptr, ptr, ptr, i32, i32, i32, double, i32, i32, i32, i32, double, double, i32, i32, i32, i32, i32, i32, i32, i32, i32, ptr, ptr, i32, i32, i32, i32, i32, i32, ptr, ptr, ptr, ptr, ptr, ptr, ptr, ptr, i32, i64, i64, i64, i32, i64, i64, double, double, double, double, double, double, i32, ptr, ptr, i64 }
%struct.DdNode = type { i32, i32, ptr, %union.anon, i64 }
%union.anon = type { %struct.DdChildren }
%struct.DdChildren = type { ptr, ptr }
%struct.DdSubtable = type { ptr, i32, i32, i32, i32, i32, i32, i32, i32, i32, i32, i32 }
%struct.DdCache = type { ptr, ptr, i64, ptr, i32 }

; Function Attrs: nounwind uwtable
define ptr @cuddConstantLookup(ptr noundef %0, i64 noundef %1, ptr noundef %2, ptr noundef %3, ptr noundef %4) #0 {
  %6 = alloca ptr, align 8
  %7 = alloca ptr, align 8
  %8 = alloca i64, align 8
  %9 = alloca ptr, align 8
  %10 = alloca ptr, align 8
  %11 = alloca ptr, align 8
  %12 = alloca i32, align 4
  %13 = alloca ptr, align 8
  %14 = alloca ptr, align 8
  %15 = alloca i64, align 8
  %16 = alloca i64, align 8
  %17 = alloca i64, align 8
  %18 = alloca i64, align 8
  %19 = alloca i64, align 8
  %20 = alloca i64, align 8
  %21 = alloca i32, align 4
  store ptr %0, ptr %7, align 8, !tbaa !3
  store i64 %1, ptr %8, align 8, !tbaa !30
  store ptr %2, ptr %9, align 8, !tbaa !52
  store ptr %3, ptr %10, align 8, !tbaa !52
  store ptr %4, ptr %11, align 8, !tbaa !52
  call void @llvm.lifetime.start.p0(i64 4, ptr %12) #6
  call void @llvm.lifetime.start.p0(i64 8, ptr %13) #6
  call void @llvm.lifetime.start.p0(i64 8, ptr %14) #6
  call void @llvm.lifetime.start.p0(i64 8, ptr %15) #6
  call void @llvm.lifetime.start.p0(i64 8, ptr %16) #6
  call void @llvm.lifetime.start.p0(i64 8, ptr %17) #6
  call void @llvm.lifetime.start.p0(i64 8, ptr %18) #6
  call void @llvm.lifetime.start.p0(i64 8, ptr %19) #6
  call void @llvm.lifetime.start.p0(i64 8, ptr %20) #6
  %22 = load ptr, ptr %9, align 8, !tbaa !52
  %23 = ptrtoint ptr %22 to i64
  %24 = load i64, ptr %8, align 8, !tbaa !30
  %25 = and i64 %24, 14
  %26 = or i64 %23, %25
  store i64 %26, ptr %15, align 8, !tbaa !30
  %27 = load ptr, ptr %10, align 8, !tbaa !52
  %28 = ptrtoint ptr %27 to i64
  %29 = load i64, ptr %8, align 8, !tbaa !30
  %30 = lshr i64 %29, 4
  %31 = or i64 %28, %30
  store i64 %31, ptr %16, align 8, !tbaa !30
  %32 = load ptr, ptr %11, align 8, !tbaa !52
  %33 = ptrtoint ptr %32 to i64
  store i64 %33, ptr %17, align 8, !tbaa !30
  %34 = load ptr, ptr %9, align 8, !tbaa !52
  %35 = ptrtoint ptr %34 to i64
  %36 = and i64 %35, -2
  %37 = inttoptr i64 %36 to ptr
  %38 = getelementptr inbounds nuw %struct.DdNode, ptr %37, i32 0, i32 4
  %39 = load i64, ptr %38, align 8, !tbaa !53
  %40 = shl i64 %39, 1
  %41 = load ptr, ptr %9, align 8, !tbaa !52
  %42 = ptrtoint ptr %41 to i64
  %43 = and i64 %42, 1
  %44 = trunc i64 %43 to i32
  %45 = sext i32 %44 to i64
  %46 = or i64 %40, %45
  %47 = load i64, ptr %8, align 8, !tbaa !30
  %48 = and i64 %47, 14
  %49 = or i64 %46, %48
  store i64 %49, ptr %18, align 8, !tbaa !30
  %50 = load ptr, ptr %10, align 8, !tbaa !52
  %51 = ptrtoint ptr %50 to i64
  %52 = and i64 %51, -2
  %53 = inttoptr i64 %52 to ptr
  %54 = getelementptr inbounds nuw %struct.DdNode, ptr %53, i32 0, i32 4
  %55 = load i64, ptr %54, align 8, !tbaa !53
  %56 = shl i64 %55, 1
  %57 = load ptr, ptr %10, align 8, !tbaa !52
  %58 = ptrtoint ptr %57 to i64
  %59 = and i64 %58, 1
  %60 = trunc i64 %59 to i32
  %61 = sext i32 %60 to i64
  %62 = or i64 %56, %61
  %63 = load i64, ptr %8, align 8, !tbaa !30
  %64 = lshr i64 %63, 4
  %65 = or i64 %62, %64
  store i64 %65, ptr %19, align 8, !tbaa !30
  %66 = load ptr, ptr %11, align 8, !tbaa !52
  %67 = ptrtoint ptr %66 to i64
  %68 = and i64 %67, -2
  %69 = inttoptr i64 %68 to ptr
  %70 = getelementptr inbounds nuw %struct.DdNode, ptr %69, i32 0, i32 4
  %71 = load i64, ptr %70, align 8, !tbaa !53
  %72 = shl i64 %71, 1
  %73 = load ptr, ptr %11, align 8, !tbaa !52
  %74 = ptrtoint ptr %73 to i64
  %75 = and i64 %74, 1
  %76 = trunc i64 %75 to i32
  %77 = sext i32 %76 to i64
  %78 = or i64 %72, %77
  store i64 %78, ptr %20, align 8, !tbaa !30
  %79 = load ptr, ptr %7, align 8, !tbaa !3
  %80 = getelementptr inbounds nuw %struct.DdManager, ptr %79, i32 0, i32 7
  %81 = load ptr, ptr %80, align 8, !tbaa !31
  store ptr %81, ptr %14, align 8, !tbaa !54
  %82 = load i64, ptr %18, align 8, !tbaa !30
  %83 = trunc i64 %82 to i32
  %84 = load i64, ptr %20, align 8, !tbaa !30
  %85 = trunc i64 %84 to i32
  %86 = add i32 %83, %85
  %87 = mul i32 %86, 12582917
  %88 = load i64, ptr %19, align 8, !tbaa !30
  %89 = trunc i64 %88 to i32
  %90 = add i32 %87, %89
  %91 = mul i32 %90, 4256249
  %92 = load ptr, ptr %7, align 8, !tbaa !3
  %93 = getelementptr inbounds nuw %struct.DdManager, ptr %92, i32 0, i32 9
  %94 = load i32, ptr %93, align 4, !tbaa !34
  %95 = lshr i32 %91, %94
  store i32 %95, ptr %12, align 4, !tbaa !8
  %96 = load ptr, ptr %14, align 8, !tbaa !54
  %97 = load i32, ptr %12, align 4, !tbaa !8
  %98 = sext i32 %97 to i64
  %99 = getelementptr inbounds %struct.DdCache, ptr %96, i64 %98
  store ptr %99, ptr %13, align 8, !tbaa !54
  %100 = load ptr, ptr %13, align 8, !tbaa !54
  %101 = getelementptr inbounds nuw %struct.DdCache, ptr %100, i32 0, i32 3
  %102 = load ptr, ptr %101, align 8, !tbaa !48
  %103 = icmp ne ptr %102, null
  br i1 %103, label %104, label %132

104:                                              ; preds = %5
  %105 = load ptr, ptr %13, align 8, !tbaa !54
  %106 = getelementptr inbounds nuw %struct.DdCache, ptr %105, i32 0, i32 0
  %107 = load ptr, ptr %106, align 8, !tbaa !55
  %108 = load i64, ptr %15, align 8, !tbaa !30
  %109 = inttoptr i64 %108 to ptr
  %110 = icmp eq ptr %107, %109
  br i1 %110, label %111, label %132

111:                                              ; preds = %104
  %112 = load ptr, ptr %13, align 8, !tbaa !54
  %113 = getelementptr inbounds nuw %struct.DdCache, ptr %112, i32 0, i32 1
  %114 = load ptr, ptr %113, align 8, !tbaa !56
  %115 = load i64, ptr %16, align 8, !tbaa !30
  %116 = inttoptr i64 %115 to ptr
  %117 = icmp eq ptr %114, %116
  br i1 %117, label %118, label %132

118:                                              ; preds = %111
  %119 = load ptr, ptr %13, align 8, !tbaa !54
  %120 = getelementptr inbounds nuw %struct.DdCache, ptr %119, i32 0, i32 2
  %121 = load i64, ptr %120, align 8, !tbaa !46
  %122 = load i64, ptr %17, align 8, !tbaa !30
  %123 = icmp eq i64 %121, %122
  br i1 %123, label %124, label %132

124:                                              ; preds = %118
  %125 = load ptr, ptr %7, align 8, !tbaa !3
  %126 = getelementptr inbounds nuw %struct.DdManager, ptr %125, i32 0, i32 11
  %127 = load double, ptr %126, align 8, !tbaa !39
  %128 = fadd double %127, 1.000000e+00
  store double %128, ptr %126, align 8, !tbaa !39
  %129 = load ptr, ptr %13, align 8, !tbaa !54
  %130 = getelementptr inbounds nuw %struct.DdCache, ptr %129, i32 0, i32 3
  %131 = load ptr, ptr %130, align 8, !tbaa !48
  store ptr %131, ptr %6, align 8
  store i32 1, ptr %21, align 4
  br label %156

132:                                              ; preds = %118, %111, %104, %5
  %133 = load ptr, ptr %7, align 8, !tbaa !3
  %134 = getelementptr inbounds nuw %struct.DdManager, ptr %133, i32 0, i32 10
  %135 = load double, ptr %134, align 8, !tbaa !38
  %136 = fadd double %135, 1.000000e+00
  store double %136, ptr %134, align 8, !tbaa !38
  %137 = load ptr, ptr %7, align 8, !tbaa !3
  %138 = getelementptr inbounds nuw %struct.DdManager, ptr %137, i32 0, i32 13
  %139 = load i32, ptr %138, align 8, !tbaa !36
  %140 = icmp sge i32 %139, 0
  br i1 %140, label %141, label %155

141:                                              ; preds = %132
  %142 = load ptr, ptr %7, align 8, !tbaa !3
  %143 = getelementptr inbounds nuw %struct.DdManager, ptr %142, i32 0, i32 11
  %144 = load double, ptr %143, align 8, !tbaa !39
  %145 = load ptr, ptr %7, align 8, !tbaa !3
  %146 = getelementptr inbounds nuw %struct.DdManager, ptr %145, i32 0, i32 10
  %147 = load double, ptr %146, align 8, !tbaa !38
  %148 = load ptr, ptr %7, align 8, !tbaa !3
  %149 = getelementptr inbounds nuw %struct.DdManager, ptr %148, i32 0, i32 12
  %150 = load double, ptr %149, align 8, !tbaa !37
  %151 = fmul double %147, %150
  %152 = fcmp ogt double %144, %151
  br i1 %152, label %153, label %155

153:                                              ; preds = %141
  %154 = load ptr, ptr %7, align 8, !tbaa !3
  call void @cuddCacheResize(ptr noundef %154)
  br label %155

155:                                              ; preds = %153, %141, %132
  store ptr null, ptr %6, align 8
  store i32 1, ptr %21, align 4
  br label %156

156:                                              ; preds = %155, %124
  call void @llvm.lifetime.end.p0(i64 8, ptr %20) #6
  call void @llvm.lifetime.end.p0(i64 8, ptr %19) #6
  call void @llvm.lifetime.end.p0(i64 8, ptr %18) #6
  call void @llvm.lifetime.end.p0(i64 8, ptr %17) #6
  call void @llvm.lifetime.end.p0(i64 8, ptr %16) #6
  call void @llvm.lifetime.end.p0(i64 8, ptr %15) #6
  call void @llvm.lifetime.end.p0(i64 8, ptr %14) #6
  call void @llvm.lifetime.end.p0(i64 8, ptr %13) #6
  call void @llvm.lifetime.end.p0(i64 4, ptr %12) #6
  %157 = load ptr, ptr %6, align 8
  ret ptr %157
}